target datalayout = "e-m:e-p270:32:32-p271:32:32-p272:64:64-i64:64-i128:128-f80:128-n8:16:32:64-S128"
target triple = "x86_64-pc-linux-gnu"

%struct.fr_foreach_s = type { ptr, ptr, ptr, ptr, i32 }
%struct._GByteArray = type { ptr, i32 }
%struct.packet_verdict_opt_s = type { i32, %union.anon.7 }
%union.anon.7 = type { ptr }

@hf_frame_verdict_hardware = internal global i32 0, align 4
@.str.105 = private unnamed_addr constant [9 x i8] c"Hardware\00", align 1
@hf_frame_verdict_tc = internal global i32 0, align 4
@hf_frame_verdict_xdp = internal global i32 0, align 4
@hf_frame_verdict_unknown = internal global i32 0, align 4
@.str.111 = private unnamed_addr constant [8 x i8] c"Unknown\00", align 1
@.str.595 = private unnamed_addr constant [8 x i8] c"%s (%u)\00", align 1
@.str.604 = private unnamed_addr constant [10 x i8] c", %s (%u)\00", align 1
@.str.611 = private unnamed_addr constant [8 x i8] c"eBPF_TC\00", align 1
@.str.612 = private unnamed_addr constant [9 x i8] c"eBPF_XDP\00", align 1

; Function Attrs: nounwind null_pointer_is_valid sspstrong uwtable
define internal ptr @get_verdict_type_string(i8 noundef zeroext %0) #7 {
  %2 = alloca ptr, align 8
  %3 = alloca i8, align 1
  store i8 %0, ptr %3, align 1
  %4 = load i8, ptr %3, align 1
  %5 = zext i8 %4 to i32
  switch i32 %5, label %9 [
    i32 0, label %6
    i32 1, label %7
    i32 2, label %8
  ]

6:                                                ; preds = %1
  store ptr @.str.105, ptr %2, align 8
  br label %10

7:                                                ; preds = %1
  store ptr @.str.611, ptr %2, align 8
  br label %10

8:                                                ; preds = %1
  store ptr @.str.612, ptr %2, align 8
  br label %10

9:                                                ; preds = %1
  store ptr @.str.111, ptr %2, align 8
  br label %10

10:                                               ; preds = %9, %8, %7, %6
  %11 = load ptr, ptr %2, align 8
  ret ptr %11
}

; Function Attrs: null_pointer_is_valid sspstrong uwtable
define internal zeroext i1 @frame_add_verdict(ptr noundef %0, i32 noundef %1, i32 noundef %2, ptr noundef %3, ptr noundef %4) #0 {
  %6 = alloca ptr, align 8
  %7 = alloca i32, align 4
  %8 = alloca i32, align 4
  %9 = alloca ptr, align 8
  %10 = alloca ptr, align 8
  %11 = alloca ptr, align 8
  %12 = alloca ptr, align 8
  %13 = alloca ptr, align 8
  store ptr %0, ptr %6, align 8
  store i32 %1, ptr %7, align 4
  store i32 %2, ptr %8, align 4
  store ptr %3, ptr %9, align 8
  store ptr %4, ptr %10, align 8
  call void @llvm.lifetime.start.p0(i64 8, ptr %11) #9
  %14 = load ptr, ptr %10, align 8
  store ptr %14, ptr %11, align 8
  %15 = load i32, ptr %7, align 4
  %16 = icmp eq i32 %15, 7
  br i1 %16, label %17, label %102

17:                                               ; preds = %5
  call void @llvm.lifetime.start.p0(i64 8, ptr %12) #9
  %18 = load ptr, ptr %9, align 8
  store ptr %18, ptr %12, align 8
  call void @llvm.lifetime.start.p0(i64 8, ptr %13) #9
  %19 = load ptr, ptr %11, align 8
  %20 = getelementptr inbounds nuw %struct.fr_foreach_s, ptr %19, i32 0, i32 4
  %21 = load i32, ptr %20, align 8
  %22 = icmp ne i32 %21, 0
  %23 = select i1 %22, ptr @.str.604, ptr @.str.595
  store ptr %23, ptr %13, align 8
  %24 = load ptr, ptr %11, align 8
  %25 = getelementptr inbounds nuw %struct.fr_foreach_s, ptr %24, i32 0, i32 0
  %26 = load ptr, ptr %25, align 8
  %27 = load ptr, ptr %13, align 8
  %28 = load ptr, ptr %12, align 8
  %29 = getelementptr inbounds nuw %struct.packet_verdict_opt_s, ptr %28, i32 0, i32 0
  %30 = load i32, ptr %29, align 8
  %31 = trunc i32 %30 to i8
  %32 = call ptr @get_verdict_type_string(i8 noundef zeroext %31)
  %33 = load ptr, ptr %12, align 8
  %34 = getelementptr inbounds nuw %struct.packet_verdict_opt_s, ptr %33, i32 0, i32 0
  %35 = load i32, ptr %34, align 8
  call void (ptr, ptr, ...) @proto_item_append_text(ptr noundef %26, ptr noundef %27, ptr noundef %32, i32 noundef %35)
  %36 = load ptr, ptr %12, align 8
  %37 = getelementptr inbounds nuw %struct.packet_verdict_opt_s, ptr %36, i32 0, i32 0
  %38 = load i32, ptr %37, align 8
  switch i32 %38, label %82 [
    i32 1, label %39
    i32 2, label %51
    i32 0, label %63
  ]

39:                                               ; preds = %17
  %40 = load ptr, ptr %11, align 8
  %41 = getelementptr inbounds nuw %struct.fr_foreach_s, ptr %40, i32 0, i32 1
  %42 = load ptr, ptr %41, align 8
  %43 = load i32, ptr @hf_frame_verdict_tc, align 4
  %44 = load ptr, ptr %11, align 8
  %45 = getelementptr inbounds nuw %struct.fr_foreach_s, ptr %44, i32 0, i32 2
  %46 = load ptr, ptr %45, align 8
  %47 = load ptr, ptr %12, align 8
  %48 = getelementptr inbounds nuw %struct.packet_verdict_opt_s, ptr %47, i32 0, i32 1
  %49 = load i64, ptr %48, align 8
  %50 = call ptr @proto_tree_add_int64(ptr noundef %42, i32 noundef %43, ptr noundef %46, i32 noundef 0, i32 noundef 0, i64 noundef %49)
  br label %101

51:                                               ; preds = %17
  %52 = load ptr, ptr %11, align 8
  %53 = getelementptr inbounds nuw %struct.fr_foreach_s, ptr %52, i32 0, i32 1
  %54 = load ptr, ptr %53, align 8
  %55 = load i32, ptr @hf_frame_verdict_xdp, align 4
  %56 = load ptr, ptr %11, align 8
  %57 = getelementptr inbounds nuw %struct.fr_foreach_s, ptr %56, i32 0, i32 2
  %58 = load ptr, ptr %57, align 8
  %59 = load ptr, ptr %12, align 8
  %60 = getelementptr inbounds nuw %struct.packet_verdict_opt_s, ptr %59, i32 0, i32 1
  %61 = load i64, ptr %60, align 8
  %62 = call ptr @proto_tree_add_int64(ptr noundef %54, i32 noundef %55, ptr noundef %58, i32 noundef 0, i32 noundef 0, i64 noundef %61)
  br label %101

63:                                               ; preds = %17
  %64 = load ptr, ptr %11, align 8
  %65 = getelementptr inbounds nuw %struct.fr_foreach_s, ptr %64, i32 0, i32 1
  %66 = load ptr, ptr %65, align 8
  %67 = load i32, ptr @hf_frame_verdict_hardware, align 4
  %68 = load ptr, ptr %11, align 8
  %69 = getelementptr inbounds nuw %struct.fr_foreach_s, ptr %68, i32 0, i32 2
  %70 = load ptr, ptr %69, align 8
  %71 = load ptr, ptr %12, align 8
  %72 = getelementptr inbounds nuw %struct.packet_verdict_opt_s, ptr %71, i32 0, i32 1
  %73 = load ptr, ptr %72, align 8
  %74 = getelementptr inbounds nuw %struct._GByteArray, ptr %73, i32 0, i32 0
  %75 = load ptr, ptr %74, align 8
  %76 = load ptr, ptr %12, align 8
  %77 = getelementptr inbounds nuw %struct.packet_verdict_opt_s, ptr %76, i32 0, i32 1
  %78 = load ptr, ptr %77, align 8
  %79 = getelementptr inbounds nuw %struct._GByteArray, ptr %78, i32 0, i32 1
  %80 = load i32, ptr %79, align 8
  %81 = call ptr @proto_tree_add_bytes_with_length(ptr noundef %66, i32 noundef %67, ptr noundef %70, i32 noundef 0, i32 noundef 0, ptr noundef %75, i32 noundef %80)
  br label %101

82:                                               ; preds = %17
  %83 = load ptr, ptr %11, align 8
  %84 = getelementptr inbounds nuw %struct.fr_foreach_s, ptr %83, i32 0, i32 1
  %85 = load ptr, ptr %84, align 8
  %86 = load i32, ptr @hf_frame_verdict_unknown, align 4
  %87 = load ptr, ptr %11, align 8
  %88 = getelementptr inbounds nuw %struct.fr_foreach_s, ptr %87, i32 0, i32 2
  %89 = load ptr, ptr %88, align 8
  %90 = load ptr, ptr %12, align 8
  %91 = getelementptr inbounds nuw %struct.packet_verdict_opt_s, ptr %90, i32 0, i32 1
  %92 = load ptr, ptr %91, align 8
  %93 = getelementptr inbounds nuw %struct._GByteArray, ptr %92, i32 0, i32 0
  %94 = load ptr, ptr %93, align 8
  %95 = load ptr, ptr %12, align 8
  %96 = getelementptr inbounds nuw %struct.packet_verdict_opt_s, ptr %95, i32 0, i32 1
  %97 = load ptr, ptr %96, align 8
  %98 = getelementptr inbounds nuw %struct._GByteArray, ptr %97, i32 0, i32 1
  %99 = load i32, ptr %98, align 8
  %100 = call ptr @proto_tree_add_bytes_with_length(ptr noundef %85, i32 noundef %86, ptr noundef %89, i32 noundef 0, i32 noundef 0, ptr noundef %94, i32 noundef %99)
  br label %101

101:                                              ; preds = %82, %63, %51, %39
  call void @llvm.lifetime.end.p0(i64 8, ptr %13) #9
  call void @llvm.lifetime.end.p0(i64 8, ptr %12) #9
  br label %102

102:                                              ; preds = %101, %5
  %103 = load ptr, ptr %11, align 8
  %104 = getelementptr inbounds nuw %struct.fr_foreach_s, ptr %103, i32 0, i32 4
  %105 = load i32, ptr %104, align 8
  %106 = add i32 %105, 1
  store i32 %106, ptr %104, align 8
  call void @llvm.lifetime.end.p0(i64 8, ptr %11) #9
  ret i1 true
}