; Function Attrs: null_pointer_is_valid sspstrong uwtable
define internal noundef zeroext i1 @frame_add_verdict(ptr readnone captures(none) %0, i32 noundef %1, i32 %2, ptr noundef readonly captures(none) %3, ptr noundef captures(none) %4) #0 {
  %6 = icmp eq i32 %1, 7
  br i1 %6, label %7, label %44

7:                                                ; preds = %5
  %8 = getelementptr inbounds nuw i8, ptr %4, i64 32
  %9 = load i32, ptr %8, align 8
  %.not = icmp eq i32 %9, 0
  %10 = select i1 %.not, ptr @.str.595, ptr @.str.604
  %11 = load ptr, ptr %4, align 8
  %12 = load i32, ptr %3, align 8
  %13 = trunc i32 %12 to i8
  %14 = icmp ult i8 %13, 3
  br i1 %14, label %switch.lookup, label %get_verdict_type_string.exit

switch.lookup:                                    ; preds = %7
  %.mask = and i32 %12, 3
  %15 = zext nneg i32 %.mask to i64
  %switch.gep = getelementptr inbounds nuw [3 x ptr], ptr @switch.table.frame_add_verdict, i64 0, i64 %15
  %switch.load = load ptr, ptr %switch.gep, align 8
  br label %get_verdict_type_string.exit

get_verdict_type_string.exit:                     ; preds = %7, %switch.lookup
  %.0.i = phi ptr [ %switch.load, %switch.lookup ], [ @.str.111, %7 ]
  tail call void (ptr, ptr, ...) @proto_item_append_text(ptr noundef %11, ptr noundef nonnull %10, ptr noundef nonnull %.0.i, i32 noundef %12)
  %16 = load i32, ptr %3, align 8
  %17 = getelementptr inbounds nuw i8, ptr %4, i64 8
  %18 = load ptr, ptr %17, align 8
  %19 = getelementptr inbounds nuw i8, ptr %4, i64 16
  %20 = load ptr, ptr %19, align 8
  %21 = getelementptr inbounds nuw i8, ptr %3, i64 8
  switch i32 %16, label %37 [
    i32 1, label %22
    i32 2, label %26
    i32 0, label %30
  ]

22:                                               ; preds = %get_verdict_type_string.exit
  %23 = load i32, ptr @hf_frame_verdict_tc, align 4
  %24 = load i64, ptr %21, align 8
  %25 = tail call ptr @proto_tree_add_int64(ptr noundef %18, i32 noundef %23, ptr noundef %20, i32 noundef 0, i32 noundef 0, i64 noundef %24)
  br label %44

26:                                               ; preds = %get_verdict_type_string.exit
  %27 = load i32, ptr @hf_frame_verdict_xdp, align 4
  %28 = load i64, ptr %21, align 8
  %29 = tail call ptr @proto_tree_add_int64(ptr noundef %18, i32 noundef %27, ptr noundef %20, i32 noundef 0, i32 noundef 0, i64 noundef %28)
  br label %44

30:                                               ; preds = %get_verdict_type_string.exit
  %31 = load i32, ptr @hf_frame_verdict_hardware, align 4
  %32 = load ptr, ptr %21, align 8
  %33 = load ptr, ptr %32, align 8
  %34 = getelementptr inbounds nuw i8, ptr %32, i64 8
  %35 = load i32, ptr %34, align 8
  %36 = tail call ptr @proto_tree_add_bytes_with_length(ptr noundef %18, i32 noundef %31, ptr noundef %20, i32 noundef 0, i32 noundef 0, ptr noundef %33, i32 noundef %35)
  br label %44

37:                                               ; preds = %get_verdict_type_string.exit
  %38 = load i32, ptr @hf_frame_verdict_unknown, align 4
  %39 = load ptr, ptr %21, align 8
  %40 = load ptr, ptr %39, align 8
  %41 = getelementptr inbounds nuw i8, ptr %39, i64 8
  %42 = load i32, ptr %41, align 8
  %43 = tail call ptr @proto_tree_add_bytes_with_length(ptr noundef %18, i32 noundef %38, ptr noundef %20, i32 noundef 0, i32 noundef 0, ptr noundef %40, i32 noundef %42)
  br label %44

44:                                               ; preds = %22, %26, %30, %37, %5
  %45 = getelementptr inbounds nuw i8, ptr %4, i64 32
  %46 = load i32, ptr %45, align 8
  %47 = add i32 %46, 1
  store i32 %47, ptr %45, align 8
  ret i1 true
}